target datalayout = "e-m:e-p270:32:32-p271:32:32-p272:64:64-i64:64-i128:128-f80:128-n8:16:32:64-S128"
target triple = "x86_64-unknown-linux-gnu"

%class.mpz = type { i32, i8, ptr }
%class.fpa_rewriter = type <{ %class.fpa_util, ptr, i8, [7 x i8] }>
%class.fpa_util = type { ptr, ptr, i32, %class.arith_util, %class.bv_util }
%class.arith_util = type { ptr, ptr }
%class.bv_util = type { %class.bv_recognizers, ptr, ptr }
%class.bv_recognizers = type { i32 }
%class.ast = type { i32, i24, i32, i32 }
%class.obj_ref = type { ptr, ptr }
%class.scoped_mpf = type { %class._scoped_numeral }
%class._scoped_numeral = type { ptr, %class.mpf }
%class.mpf = type { i32, %class.mpz, i64 }

; Function Attrs: mustprogress nounwind uwtable
define linkonce_odr hidden noundef i32 @_ZNK3ast13get_ref_countEv(ptr noundef nonnull align 4 dereferenceable(16) %this) #5 comdat align 2 {
entry:
  %this.addr = alloca ptr, align 8
  store ptr %this, ptr %this.addr, align 8
  %this1 = load ptr, ptr %this.addr, align 8
  %m_ref_count = getelementptr inbounds %class.ast, ptr %this1, i32 0, i32 2
  %0 = load i32, ptr %m_ref_count, align 4
  ret i32 %0
}

; Function Attrs: mustprogress nounwind uwtable
define linkonce_odr hidden void @_ZN3ast7dec_refEv(ptr noundef nonnull align 4 dereferenceable(16) %this) #5 comdat align 2 {
entry:
  %this.addr = alloca ptr, align 8
  store ptr %this, ptr %this.addr, align 8
  %this1 = load ptr, ptr %this.addr, align 8
  %m_ref_count = getelementptr inbounds %class.ast, ptr %this1, i32 0, i32 2
  %0 = load i32, ptr %m_ref_count, align 4
  %dec = add i32 %0, -1
  store i32 %dec, ptr %m_ref_count, align 4
  ret void
}

; Function Attrs: mustprogress uwtable
define linkonce_odr hidden void @_ZN11ast_manager7dec_refEP3ast(ptr noundef nonnull align 8 dereferenceable(976) %this, ptr noundef %n) #4 comdat align 2 {
entry:
  %this.addr = alloca ptr, align 8
  %n.addr = alloca ptr, align 8
  store ptr %this, ptr %this.addr, align 8
  store ptr %n, ptr %n.addr, align 8
  %this1 = load ptr, ptr %this.addr, align 8
  %0 = load ptr, ptr %n.addr, align 8
  %tobool = icmp ne ptr %0, null
  br i1 %tobool, label %if.then, label %if.end3

if.then:                                          ; preds = %entry
  %1 = load ptr, ptr %n.addr, align 8
  call void @_ZN3ast7dec_refEv(ptr noundef nonnull align 4 dereferenceable(16) %1)
  %2 = load ptr, ptr %n.addr, align 8
  %call = call noundef i32 @_ZNK3ast13get_ref_countEv(ptr noundef nonnull align 4 dereferenceable(16) %2)
  %cmp = icmp eq i32 %call, 0
  br i1 %cmp, label %if.then2, label %if.end

if.then2:                                         ; preds = %if.then
  %3 = load ptr, ptr %n.addr, align 8
  call void @_ZN11ast_manager11delete_nodeEP3ast(ptr noundef nonnull align 8 dereferenceable(976) %this1, ptr noundef %3)
  br label %if.end

if.end:                                           ; preds = %if.then2, %if.then
  br label %if.end3

if.end3:                                          ; preds = %if.end, %entry
  ret void
}

; Function Attrs: mustprogress nounwind uwtable
define linkonce_odr hidden void @_ZN3ast7inc_refEv(ptr noundef nonnull align 4 dereferenceable(16) %this) #5 comdat align 2 {
entry:
  %this.addr = alloca ptr, align 8
  store ptr %this, ptr %this.addr, align 8
  %this1 = load ptr, ptr %this.addr, align 8
  %m_ref_count = getelementptr inbounds %class.ast, ptr %this1, i32 0, i32 2
  %0 = load i32, ptr %m_ref_count, align 4
  %inc = add i32 %0, 1
  store i32 %inc, ptr %m_ref_count, align 4
  ret void
}

; Function Attrs: mustprogress uwtable
define linkonce_odr hidden void @_ZN7obj_refI4expr11ast_managerE7dec_refEv(ptr noundef nonnull align 8 dereferenceable(16) %this) #4 comdat align 2 {
entry:
  %this.addr = alloca ptr, align 8
  store ptr %this, ptr %this.addr, align 8
  %this1 = load ptr, ptr %this.addr, align 8
  %m_obj = getelementptr inbounds %class.obj_ref, ptr %this1, i32 0, i32 0
  %0 = load ptr, ptr %m_obj, align 8
  %tobool = icmp ne ptr %0, null
  br i1 %tobool, label %if.then, label %if.end

if.then:                                          ; preds = %entry
  %m_manager = getelementptr inbounds %class.obj_ref, ptr %this1, i32 0, i32 1
  %1 = load ptr, ptr %m_manager, align 8
  %m_obj2 = getelementptr inbounds %class.obj_ref, ptr %this1, i32 0, i32 0
  %2 = load ptr, ptr %m_obj2, align 8
  call void @_ZN11ast_manager7dec_refEP3ast(ptr noundef nonnull align 8 dereferenceable(976) %1, ptr noundef %2)
  br label %if.end

if.end:                                           ; preds = %if.then, %entry
  ret void
}

; Function Attrs: mustprogress uwtable
define linkonce_odr hidden void @_ZN11ast_manager7inc_refEP3ast(ptr noundef nonnull align 8 dereferenceable(976) %this, ptr noundef %n) #4 comdat align 2 {
entry:
  %this.addr = alloca ptr, align 8
  %n.addr = alloca ptr, align 8
  store ptr %this, ptr %this.addr, align 8
  store ptr %n, ptr %n.addr, align 8
  %0 = load ptr, ptr %n.addr, align 8
  %tobool = icmp ne ptr %0, null
  br i1 %tobool, label %if.then, label %if.end

if.then:                                          ; preds = %entry
  %1 = load ptr, ptr %n.addr, align 8
  call void @_ZN3ast7inc_refEv(ptr noundef nonnull align 4 dereferenceable(16) %1)
  br label %if.end

if.end:                                           ; preds = %if.then, %entry
  ret void
}

; Function Attrs: mustprogress uwtable
define linkonce_odr hidden void @_ZN15_scoped_numeralI11mpf_managerEC2ERS0_(ptr noundef nonnull align 8 dereferenceable(40) %this, ptr noundef nonnull align 8 dereferenceable(840) %m) unnamed_addr #4 comdat align 2 {
entry:
  %this.addr = alloca ptr, align 8
  %m.addr = alloca ptr, align 8
  store ptr %this, ptr %this.addr, align 8
  store ptr %m, ptr %m.addr, align 8
  %this1 = load ptr, ptr %this.addr, align 8
  %m_manager = getelementptr inbounds %class._scoped_numeral, ptr %this1, i32 0, i32 0
  %0 = load ptr, ptr %m.addr, align 8
  store ptr %0, ptr %m_manager, align 8
  %m_num = getelementptr inbounds %class._scoped_numeral, ptr %this1, i32 0, i32 1
  call void @_ZN3mpfC1Ev(ptr noundef nonnull align 8 dereferenceable(32) %m_num)
  ret void
}

; Function Attrs: mustprogress uwtable
define linkonce_odr hidden noundef nonnull align 8 dereferenceable(16) ptr @_ZN7obj_refI4expr11ast_managerEaSEPS0_(ptr noundef nonnull align 8 dereferenceable(16) %this, ptr noundef %n) #4 comdat align 2 {
entry:
  %this.addr = alloca ptr, align 8
  %n.addr = alloca ptr, align 8
  store ptr %this, ptr %this.addr, align 8
  store ptr %n, ptr %n.addr, align 8
  %this1 = load ptr, ptr %this.addr, align 8
  %0 = load ptr, ptr %n.addr, align 8
  %tobool = icmp ne ptr %0, null
  br i1 %tobool, label %if.then, label %if.end

if.then:                                          ; preds = %entry
  %m_manager = getelementptr inbounds %class.obj_ref, ptr %this1, i32 0, i32 1
  %1 = load ptr, ptr %m_manager, align 8
  %2 = load ptr, ptr %n.addr, align 8
  call void @_ZN11ast_manager7inc_refEP3ast(ptr noundef nonnull align 8 dereferenceable(976) %1, ptr noundef %2)
  br label %if.end

if.end:                                           ; preds = %if.then, %entry
  call void @_ZN7obj_refI4expr11ast_managerE7dec_refEv(ptr noundef nonnull align 8 dereferenceable(16) %this1)
  %3 = load ptr, ptr %n.addr, align 8
  %m_obj = getelementptr inbounds %class.obj_ref, ptr %this1, i32 0, i32 0
  store ptr %3, ptr %m_obj, align 8
  ret ptr %this1
}

; Function Attrs: mustprogress uwtable
define linkonce_odr hidden noundef ptr @_ZN8fpa_util8mk_valueERK3mpf(ptr noundef nonnull align 8 dereferenceable(64) %this, ptr noundef nonnull align 8 dereferenceable(32) %v) #4 comdat align 2 {
entry:
  %this.addr = alloca ptr, align 8
  %v.addr = alloca ptr, align 8
  store ptr %this, ptr %this.addr, align 8
  store ptr %v, ptr %v.addr, align 8
  %this1 = load ptr, ptr %this.addr, align 8
  %m_plugin = getelementptr inbounds %class.fpa_util, ptr %this1, i32 0, i32 1
  %0 = load ptr, ptr %m_plugin, align 8
  %1 = load ptr, ptr %v.addr, align 8
  %call = call noundef ptr @_ZN15fpa_decl_plugin10mk_numeralERK3mpf(ptr noundef nonnull align 8 dereferenceable(1008) %0, ptr noundef nonnull align 8 dereferenceable(32) %1)
  ret ptr %call
}

; Function Attrs: mustprogress uwtable
define linkonce_odr hidden noundef zeroext i1 @_ZN8fpa_util10is_numeralEP4exprR3mpf(ptr noundef nonnull align 8 dereferenceable(64) %this, ptr noundef %n, ptr noundef nonnull align 8 dereferenceable(32) %v) #4 comdat align 2 {
entry:
  %this.addr = alloca ptr, align 8
  %n.addr = alloca ptr, align 8
  %v.addr = alloca ptr, align 8
  store ptr %this, ptr %this.addr, align 8
  store ptr %n, ptr %n.addr, align 8
  store ptr %v, ptr %v.addr, align 8
  %this1 = load ptr, ptr %this.addr, align 8
  %m_plugin = getelementptr inbounds %class.fpa_util, ptr %this1, i32 0, i32 1
  %0 = load ptr, ptr %m_plugin, align 8
  %1 = load ptr, ptr %n.addr, align 8
  %2 = load ptr, ptr %v.addr, align 8
  %call = call noundef zeroext i1 @_ZN15fpa_decl_plugin10is_numeralEP4exprR3mpf(ptr noundef nonnull align 8 dereferenceable(1008) %0, ptr noundef %1, ptr noundef nonnull align 8 dereferenceable(32) %2)
  ret i1 %call
}

; Function Attrs: mustprogress nounwind uwtable
define linkonce_odr hidden noundef nonnull align 8 dereferenceable(32) ptr @_ZN15_scoped_numeralI11mpf_managerEcvR3mpfEv(ptr noundef nonnull align 8 dereferenceable(40) %this) #5 comdat align 2 {
entry:
  %this.addr = alloca ptr, align 8
  store ptr %this, ptr %this.addr, align 8
  %this1 = load ptr, ptr %this.addr, align 8
  %m_num = getelementptr inbounds %class._scoped_numeral, ptr %this1, i32 0, i32 1
  ret ptr %m_num
}

; Function Attrs: mustprogress uwtable
define linkonce_odr hidden void @_ZN10scoped_mpfC2ER11mpf_manager(ptr noundef nonnull align 8 dereferenceable(40) %this, ptr noundef nonnull align 8 dereferenceable(840) %m) unnamed_addr #4 comdat align 2 {
entry:
  %this.addr = alloca ptr, align 8
  %m.addr = alloca ptr, align 8
  store ptr %this, ptr %this.addr, align 8
  store ptr %m, ptr %m.addr, align 8
  %this1 = load ptr, ptr %this.addr, align 8
  %0 = load ptr, ptr %m.addr, align 8
  call void @_ZN15_scoped_numeralI11mpf_managerEC2ERS0_(ptr noundef nonnull align 8 dereferenceable(40) %this1, ptr noundef nonnull align 8 dereferenceable(840) %0)
  ret void
}

; Function Attrs: mustprogress uwtable
define linkonce_odr hidden noundef zeroext i1 @_ZN8fpa_util13is_rm_numeralEP4exprR17mpf_rounding_mode(ptr noundef nonnull align 8 dereferenceable(64) %this, ptr noundef %n, ptr noundef nonnull align 4 dereferenceable(4) %v) #4 comdat align 2 {
entry:
  %this.addr = alloca ptr, align 8
  %n.addr = alloca ptr, align 8
  %v.addr = alloca ptr, align 8
  store ptr %this, ptr %this.addr, align 8
  store ptr %n, ptr %n.addr, align 8
  store ptr %v, ptr %v.addr, align 8
  %this1 = load ptr, ptr %this.addr, align 8
  %m_plugin = getelementptr inbounds %class.fpa_util, ptr %this1, i32 0, i32 1
  %0 = load ptr, ptr %m_plugin, align 8
  %1 = load ptr, ptr %n.addr, align 8
  %2 = load ptr, ptr %v.addr, align 8
  %call = call noundef zeroext i1 @_ZN15fpa_decl_plugin13is_rm_numeralEP4exprR17mpf_rounding_mode(ptr noundef nonnull align 8 dereferenceable(1008) %0, ptr noundef %1, ptr noundef nonnull align 4 dereferenceable(4) %2)
  ret i1 %call
}

; Function Attrs: mustprogress uwtable
define hidden noundef i32 @_ZN12fpa_rewriter7mk_sqrtEP4exprS1_R7obj_refIS0_11ast_managerE(ptr noundef nonnull align 8 dereferenceable(73) %this, ptr noundef %arg1, ptr noundef %arg2, ptr noundef nonnull align 8 dereferenceable(16) %result) #4 align 2 personality ptr @__gxx_personality_v0 {
entry:
  %retval = alloca i32, align 4
  %this.addr = alloca ptr, align 8
  %arg1.addr = alloca ptr, align 8
  %arg2.addr = alloca ptr, align 8
  %result.addr = alloca ptr, align 8
  %rm = alloca i32, align 4
  %v2 = alloca %class.scoped_mpf, align 8
  %exn.slot = alloca ptr, align 8
  %ehselector.slot = alloca i32, align 4
  %t = alloca %class.scoped_mpf, align 8
  %cleanup.dest.slot = alloca i32, align 4
  store ptr %this, ptr %this.addr, align 8
  store ptr %arg1, ptr %arg1.addr, align 8
  store ptr %arg2, ptr %arg2.addr, align 8
  store ptr %result, ptr %result.addr, align 8
  %this1 = load ptr, ptr %this.addr, align 8
  %m_util = getelementptr inbounds %class.fpa_rewriter, ptr %this1, i32 0, i32 0
  %0 = load ptr, ptr %arg1.addr, align 8
  %call = call noundef zeroext i1 @_ZN8fpa_util13is_rm_numeralEP4exprR17mpf_rounding_mode(ptr noundef nonnull align 8 dereferenceable(64) %m_util, ptr noundef %0, ptr noundef nonnull align 4 dereferenceable(4) %rm)
  br i1 %call, label %if.then, label %if.end23

if.then:                                          ; preds = %entry
  %m_fm = getelementptr inbounds %class.fpa_rewriter, ptr %this1, i32 0, i32 1
  %1 = load ptr, ptr %m_fm, align 8
  call void @_ZN10scoped_mpfC2ER11mpf_manager(ptr noundef nonnull align 8 dereferenceable(40) %v2, ptr noundef nonnull align 8 dereferenceable(840) %1)
  %m_util2 = getelementptr inbounds %class.fpa_rewriter, ptr %this1, i32 0, i32 0
  %2 = load ptr, ptr %arg2.addr, align 8
  %call3 = invoke noundef nonnull align 8 dereferenceable(32) ptr @_ZN15_scoped_numeralI11mpf_managerEcvR3mpfEv(ptr noundef nonnull align 8 dereferenceable(40) %v2)
          to label %invoke.cont unwind label %lpad

invoke.cont:                                      ; preds = %if.then
  %call5 = invoke noundef zeroext i1 @_ZN8fpa_util10is_numeralEP4exprR3mpf(ptr noundef nonnull align 8 dereferenceable(64) %m_util2, ptr noundef %2, ptr noundef nonnull align 8 dereferenceable(32) %call3)
          to label %invoke.cont4 unwind label %lpad

invoke.cont4:                                     ; preds = %invoke.cont
  br i1 %call5, label %if.then6, label %if.end

if.then6:                                         ; preds = %invoke.cont4
  %m_fm7 = getelementptr inbounds %class.fpa_rewriter, ptr %this1, i32 0, i32 1
  %3 = load ptr, ptr %m_fm7, align 8
  invoke void @_ZN10scoped_mpfC2ER11mpf_manager(ptr noundef nonnull align 8 dereferenceable(40) %t, ptr noundef nonnull align 8 dereferenceable(840) %3)
          to label %invoke.cont8 unwind label %lpad

invoke.cont8:                                     ; preds = %if.then6
  %m_fm9 = getelementptr inbounds %class.fpa_rewriter, ptr %this1, i32 0, i32 1
  %4 = load ptr, ptr %m_fm9, align 8
  %5 = load i32, ptr %rm, align 4
  %call12 = invoke noundef nonnull align 8 dereferenceable(32) ptr @_ZN15_scoped_numeralI11mpf_managerEcvR3mpfEv(ptr noundef nonnull align 8 dereferenceable(40) %v2)
          to label %invoke.cont11 unwind label %lpad10

invoke.cont11:                                    ; preds = %invoke.cont8
  %call14 = invoke noundef nonnull align 8 dereferenceable(32) ptr @_ZN15_scoped_numeralI11mpf_managerEcvR3mpfEv(ptr noundef nonnull align 8 dereferenceable(40) %t)
          to label %invoke.cont13 unwind label %lpad10

invoke.cont13:                                    ; preds = %invoke.cont11
  invoke void @_ZN11mpf_manager4sqrtE17mpf_rounding_modeRK3mpfRS1_(ptr noundef nonnull align 8 dereferenceable(840) %4, i32 noundef %5, ptr noundef nonnull align 8 dereferenceable(32) %call12, ptr noundef nonnull align 8 dereferenceable(32) %call14)
          to label %invoke.cont15 unwind label %lpad10

invoke.cont15:                                    ; preds = %invoke.cont13
  %m_util16 = getelementptr inbounds %class.fpa_rewriter, ptr %this1, i32 0, i32 0
  %call18 = invoke noundef nonnull align 8 dereferenceable(32) ptr @_ZN15_scoped_numeralI11mpf_managerEcvR3mpfEv(ptr noundef nonnull align 8 dereferenceable(40) %t)
          to label %invoke.cont17 unwind label %lpad10

invoke.cont17:                                    ; preds = %invoke.cont15
  %call20 = invoke noundef ptr @_ZN8fpa_util8mk_valueERK3mpf(ptr noundef nonnull align 8 dereferenceable(64) %m_util16, ptr noundef nonnull align 8 dereferenceable(32) %call18)
          to label %invoke.cont19 unwind label %lpad10

invoke.cont19:                                    ; preds = %invoke.cont17
  %6 = load ptr, ptr %result.addr, align 8
  %call22 = invoke noundef nonnull align 8 dereferenceable(16) ptr @_ZN7obj_refI4expr11ast_managerEaSEPS0_(ptr noundef nonnull align 8 dereferenceable(16) %6, ptr noundef %call20)
          to label %invoke.cont21 unwind label %lpad10

invoke.cont21:                                    ; preds = %invoke.cont19
  store i32 4, ptr %retval, align 4
  store i32 1, ptr %cleanup.dest.slot, align 4
  call void @_ZN10scoped_mpfD2Ev(ptr noundef nonnull align 8 dereferenceable(40) %t) #3
  br label %cleanup

lpad:                                             ; preds = %if.then6, %invoke.cont, %if.then
  %7 = landingpad { ptr, i32 }
          cleanup
  %8 = extractvalue { ptr, i32 } %7, 0
  store ptr %8, ptr %exn.slot, align 8
  %9 = extractvalue { ptr, i32 } %7, 1
  store i32 %9, ptr %ehselector.slot, align 4
  br label %ehcleanup

lpad10:                                           ; preds = %invoke.cont19, %invoke.cont17, %invoke.cont15, %invoke.cont13, %invoke.cont11, %invoke.cont8
  %10 = landingpad { ptr, i32 }
          cleanup
  %11 = extractvalue { ptr, i32 } %10, 0
  store ptr %11, ptr %exn.slot, align 8
  %12 = extractvalue { ptr, i32 } %10, 1
  store i32 %12, ptr %ehselector.slot, align 4
  call void @_ZN10scoped_mpfD2Ev(ptr noundef nonnull align 8 dereferenceable(40) %t) #3
  br label %ehcleanup

if.end:                                           ; preds = %invoke.cont4
  store i32 0, ptr %cleanup.dest.slot, align 4
  br label %cleanup

cleanup:                                          ; preds = %if.end, %invoke.cont21
  call void @_ZN10scoped_mpfD2Ev(ptr noundef nonnull align 8 dereferenceable(40) %v2) #3
  %cleanup.dest = load i32, ptr %cleanup.dest.slot, align 4
  switch i32 %cleanup.dest, label %unreachable [
    i32 0, label %cleanup.cont
    i32 1, label %return
  ]

cleanup.cont:                                     ; preds = %cleanup
  br label %if.end23

ehcleanup:                                        ; preds = %lpad10, %lpad
  call void @_ZN10scoped_mpfD2Ev(ptr noundef nonnull align 8 dereferenceable(40) %v2) #3
  br label %eh.resume

if.end23:                                         ; preds = %cleanup.cont, %entry
  store i32 5, ptr %retval, align 4
  br label %return

return:                                           ; preds = %if.end23, %cleanup
  %13 = load i32, ptr %retval, align 4
  ret i32 %13

eh.resume:                                        ; preds = %ehcleanup
  %exn = load ptr, ptr %exn.slot, align 8
  %sel = load i32, ptr %ehselector.slot, align 4
  %lpad.val = insertvalue { ptr, i32 } poison, ptr %exn, 0
  %lpad.val24 = insertvalue { ptr, i32 } %lpad.val, i32 %sel, 1
  resume { ptr, i32 } %lpad.val24

unreachable:                                      ; preds = %cleanup
  unreachable
}