; Function Attrs: mustprogress uwtable
define hidden noundef i32 @_ZN12fpa_rewriter7mk_sqrtEP4exprS1_R7obj_refIS0_11ast_managerE(ptr nocapture noundef nonnull readonly align 8 dereferenceable(73) %this, ptr noundef %arg1, ptr noundef %arg2, ptr nocapture noundef nonnull align 8 dereferenceable(16) %result) local_unnamed_addr #3 align 2 personality ptr @__gxx_personality_v0 {
entry:
  %rm = alloca i32, align 4
  %v2 = alloca %class.scoped_mpf, align 8
  %t = alloca %class.scoped_mpf, align 8
  %m_plugin.i = getelementptr inbounds i8, ptr %this, i64 8
  %0 = load ptr, ptr %m_plugin.i, align 8
  %call.i = call noundef zeroext i1 @_ZN15fpa_decl_plugin13is_rm_numeralEP4exprR17mpf_rounding_mode(ptr noundef nonnull align 8 dereferenceable(1008) %0, ptr noundef %arg1, ptr noundef nonnull align 4 dereferenceable(4) %rm)
  br i1 %call.i, label %if.then, label %if.end23

if.then:                                          ; preds = %entry
  %m_fm = getelementptr inbounds i8, ptr %this, i64 64
  %1 = load ptr, ptr %m_fm, align 8
  store ptr %1, ptr %v2, align 8
  %m_num.i.i = getelementptr inbounds i8, ptr %v2, i64 8
  call void @_ZN3mpfC1Ev(ptr noundef nonnull align 8 dereferenceable(32) %m_num.i.i)
  %2 = load ptr, ptr %m_plugin.i, align 8
  %call.i34 = invoke noundef zeroext i1 @_ZN15fpa_decl_plugin10is_numeralEP4exprR3mpf(ptr noundef nonnull align 8 dereferenceable(1008) %2, ptr noundef %arg2, ptr noundef nonnull align 8 dereferenceable(32) %m_num.i.i)
          to label %invoke.cont4 unwind label %lpad

invoke.cont4:                                     ; preds = %if.then
  br i1 %call.i34, label %if.then6, label %cleanup

if.then6:                                         ; preds = %invoke.cont4
  %3 = load ptr, ptr %m_fm, align 8
  store ptr %3, ptr %t, align 8
  %m_num.i.i5 = getelementptr inbounds i8, ptr %t, i64 8
  invoke void @_ZN3mpfC1Ev(ptr noundef nonnull align 8 dereferenceable(32) %m_num.i.i5)
          to label %invoke.cont8 unwind label %lpad

invoke.cont8:                                     ; preds = %if.then6
  %4 = load ptr, ptr %m_fm, align 8
  %5 = load i32, ptr %rm, align 4
  invoke void @_ZN11mpf_manager4sqrtE17mpf_rounding_modeRK3mpfRS1_(ptr noundef nonnull align 8 dereferenceable(840) %4, i32 noundef %5, ptr noundef nonnull align 8 dereferenceable(32) %m_num.i.i, ptr noundef nonnull align 8 dereferenceable(32) %m_num.i.i5)
          to label %invoke.cont15 unwind label %lpad10

invoke.cont15:                                    ; preds = %invoke.cont8
  %6 = load ptr, ptr %m_plugin.i, align 8
  %call.i1011 = invoke noundef ptr @_ZN15fpa_decl_plugin10mk_numeralERK3mpf(ptr noundef nonnull align 8 dereferenceable(1008) %6, ptr noundef nonnull align 8 dereferenceable(32) %m_num.i.i5)
          to label %invoke.cont19 unwind label %lpad10

invoke.cont19:                                    ; preds = %invoke.cont15
  %tobool.not.i = icmp eq ptr %call.i1011, null
  br i1 %tobool.not.i, label %if.end.i, label %_ZN11ast_manager7inc_refEP3ast.exit.i

_ZN11ast_manager7inc_refEP3ast.exit.i:            ; preds = %invoke.cont19
  %m_ref_count.i.i.i = getelementptr inbounds i8, ptr %call.i1011, i64 8
  %7 = load i32, ptr %m_ref_count.i.i.i, align 4
  %inc.i.i.i = add i32 %7, 1
  store i32 %inc.i.i.i, ptr %m_ref_count.i.i.i, align 4
  br label %if.end.i

if.end.i:                                         ; preds = %_ZN11ast_manager7inc_refEP3ast.exit.i, %invoke.cont19
  %8 = load ptr, ptr %result, align 8
  %tobool.not.i3.i = icmp eq ptr %8, null
  br i1 %tobool.not.i3.i, label %invoke.cont21, label %if.then.i.i.i

if.then.i.i.i:                                    ; preds = %if.end.i
  %m_manager.i.i = getelementptr inbounds i8, ptr %result, i64 8
  %9 = load ptr, ptr %m_manager.i.i, align 8
  %m_ref_count.i.i.i.i = getelementptr inbounds i8, ptr %8, i64 8
  %10 = load i32, ptr %m_ref_count.i.i.i.i, align 4
  %dec.i.i.i.i = add i32 %10, -1
  store i32 %dec.i.i.i.i, ptr %m_ref_count.i.i.i.i, align 4
  %cmp.i.i.i = icmp eq i32 %dec.i.i.i.i, 0
  br i1 %cmp.i.i.i, label %if.then2.i.i.i, label %invoke.cont21

if.then2.i.i.i:                                   ; preds = %if.then.i.i.i
  invoke void @_ZN11ast_manager11delete_nodeEP3ast(ptr noundef nonnull align 8 dereferenceable(976) %9, ptr noundef nonnull %8)
          to label %invoke.cont21 unwind label %lpad10

invoke.cont21:                                    ; preds = %if.then.i.i.i, %if.end.i, %if.then2.i.i.i
  store ptr %call.i1011, ptr %result, align 8
  %11 = load ptr, ptr %t, align 8
  %m_mpz_manager.i.i.i = getelementptr inbounds i8, ptr %11, i64 728
  %12 = load ptr, ptr %m_mpz_manager.i.i.i, align 8
  %significand.i.i.i = getelementptr inbounds i8, ptr %t, i64 16
  invoke void @_ZN11mpz_managerILb0EE3delEPS0_R3mpz(ptr noundef nonnull %12, ptr noundef nonnull align 8 dereferenceable(16) %significand.i.i.i)
          to label %cleanup unwind label %terminate.lpad.i.i

terminate.lpad.i.i:                               ; preds = %invoke.cont21
  %13 = landingpad { ptr, i32 }
          catch ptr null
  %14 = extractvalue { ptr, i32 } %13, 0
  call void @__clang_call_terminate(ptr %14) #14
  unreachable

lpad:                                             ; preds = %if.then6, %if.then
  %15 = landingpad { ptr, i32 }
          cleanup
  br label %ehcleanup

lpad10:                                           ; preds = %if.then2.i.i.i, %invoke.cont15, %invoke.cont8
  %16 = landingpad { ptr, i32 }
          cleanup
  call void @_ZN10scoped_mpfD2Ev(ptr noundef nonnull align 8 dereferenceable(40) %t) #13
  br label %ehcleanup

cleanup:                                          ; preds = %invoke.cont21, %invoke.cont4
  %17 = load ptr, ptr %v2, align 8
  %m_mpz_manager.i.i.i12 = getelementptr inbounds i8, ptr %17, i64 728
  %18 = load ptr, ptr %m_mpz_manager.i.i.i12, align 8
  %significand.i.i.i13 = getelementptr inbounds i8, ptr %v2, i64 16
  invoke void @_ZN11mpz_managerILb0EE3delEPS0_R3mpz(ptr noundef nonnull %18, ptr noundef nonnull align 8 dereferenceable(16) %significand.i.i.i13)
          to label %_ZN10scoped_mpfD2Ev.exit15 unwind label %terminate.lpad.i.i14

terminate.lpad.i.i14:                             ; preds = %cleanup
  %19 = landingpad { ptr, i32 }
          catch ptr null
  %20 = extractvalue { ptr, i32 } %19, 0
  call void @__clang_call_terminate(ptr %20) #14
  unreachable

_ZN10scoped_mpfD2Ev.exit15:                       ; preds = %cleanup
  br i1 %call.i34, label %return, label %if.end23

ehcleanup:                                        ; preds = %lpad10, %lpad
  %.pn = phi { ptr, i32 } [ %16, %lpad10 ], [ %15, %lpad ]
  call void @_ZN10scoped_mpfD2Ev(ptr noundef nonnull align 8 dereferenceable(40) %v2) #13
  resume { ptr, i32 } %.pn

if.end23:                                         ; preds = %_ZN10scoped_mpfD2Ev.exit15, %entry
  br label %return

return:                                           ; preds = %_ZN10scoped_mpfD2Ev.exit15, %if.end23
  %retval.1 = phi i32 [ 4, %_ZN10scoped_mpfD2Ev.exit15 ], [ 5, %if.end23 ]
  ret i32 %retval.1
}